target datalayout = "e-m:e-p270:32:32-p271:32:32-p272:64:64-i64:64-i128:128-f80:128-n8:16:32:64-S128"
target triple = "x86_64-pc-linux-gnu"

; Function Attrs: nounwind uwtable
define internal void @ssl_bitmask_set(ptr noundef %0, i64 noundef %1, i64 noundef %2) #0 {
  %4 = alloca ptr, align 8
  %5 = alloca i64, align 8
  %6 = alloca i64, align 8
  %7 = alloca i32, align 4
  %8 = alloca i32, align 4
  %9 = alloca i64, align 8
  %10 = alloca i32, align 4
  %11 = alloca i64, align 8
  store ptr %0, ptr %4, align 8, !tbaa !21
  store i64 %1, ptr %5, align 8, !tbaa !22
  store i64 %2, ptr %6, align 8, !tbaa !22
  call void @llvm.lifetime.start.p0(i64 4, ptr %7) #11
  call void @llvm.lifetime.start.p0(i64 4, ptr %8) #11
  %12 = load i64, ptr %5, align 8, !tbaa !22
  %13 = urem i64 %12, 8
  %14 = sub i64 8, %13
  %15 = trunc i64 %14 to i32
  store i32 %15, ptr %7, align 4, !tbaa !8
  %16 = load i32, ptr %7, align 4, !tbaa !8
  %17 = icmp ne i32 %16, 8
  br i1 %17, label %18, label %77

18:                                               ; preds = %3
  call void @llvm.lifetime.start.p0(i64 8, ptr %9) #11
  %19 = load i64, ptr %5, align 8, !tbaa !22
  %20 = udiv i64 %19, 8
  store i64 %20, ptr %9, align 8, !tbaa !22
  %21 = load i64, ptr %6, align 8, !tbaa !22
  %22 = load i32, ptr %7, align 4, !tbaa !8
  %23 = zext i32 %22 to i64
  %24 = icmp ule i64 %21, %23
  br i1 %24, label %25, label %47

25:                                               ; preds = %18
  br label %26

26:                                               ; preds = %43, %25
  %27 = load i64, ptr %6, align 8, !tbaa !22
  %28 = icmp ne i64 %27, 0
  br i1 %28, label %29, label %46

29:                                               ; preds = %26
  %30 = load i32, ptr %7, align 4, !tbaa !8
  %31 = zext i32 %30 to i64
  %32 = load i64, ptr %6, align 8, !tbaa !22
  %33 = sub i64 %31, %32
  %34 = trunc i64 %33 to i32
  %35 = shl i32 1, %34
  %36 = load ptr, ptr %4, align 8, !tbaa !21
  %37 = load i64, ptr %9, align 8, !tbaa !22
  %38 = getelementptr inbounds nuw i8, ptr %36, i64 %37
  %39 = load i8, ptr %38, align 1, !tbaa !38
  %40 = zext i8 %39 to i32
  %41 = or i32 %40, %35
  %42 = trunc i32 %41 to i8
  store i8 %42, ptr %38, align 1, !tbaa !38
  br label %43

43:                                               ; preds = %29
  %44 = load i64, ptr %6, align 8, !tbaa !22
  %45 = add i64 %44, -1
  store i64 %45, ptr %6, align 8, !tbaa !22
  br label %26, !llvm.loop !186

46:                                               ; preds = %26
  store i32 1, ptr %10, align 4
  br label %74

47:                                               ; preds = %18
  %48 = load i32, ptr %7, align 4, !tbaa !8
  %49 = zext i32 %48 to i64
  %50 = load i64, ptr %5, align 8, !tbaa !22
  %51 = add i64 %50, %49
  store i64 %51, ptr %5, align 8, !tbaa !22
  %52 = load i32, ptr %7, align 4, !tbaa !8
  %53 = zext i32 %52 to i64
  %54 = load i64, ptr %6, align 8, !tbaa !22
  %55 = sub i64 %54, %53
  store i64 %55, ptr %6, align 8, !tbaa !22
  br label %56

56:                                               ; preds = %70, %47
  %57 = load i32, ptr %7, align 4, !tbaa !8
  %58 = icmp ne i32 %57, 0
  br i1 %58, label %59, label %73

59:                                               ; preds = %56
  %60 = load i32, ptr %7, align 4, !tbaa !8
  %61 = sub i32 %60, 1
  %62 = shl i32 1, %61
  %63 = load ptr, ptr %4, align 8, !tbaa !21
  %64 = load i64, ptr %9, align 8, !tbaa !22
  %65 = getelementptr inbounds nuw i8, ptr %63, i64 %64
  %66 = load i8, ptr %65, align 1, !tbaa !38
  %67 = zext i8 %66 to i32
  %68 = or i32 %67, %62
  %69 = trunc i32 %68 to i8
  store i8 %69, ptr %65, align 1, !tbaa !38
  br label %70

70:                                               ; preds = %59
  %71 = load i32, ptr %7, align 4, !tbaa !8
  %72 = add i32 %71, -1
  store i32 %72, ptr %7, align 4, !tbaa !8
  br label %56, !llvm.loop !187

73:                                               ; preds = %56
  store i32 0, ptr %10, align 4
  br label %74

74:                                               ; preds = %73, %46
  call void @llvm.lifetime.end.p0(i64 8, ptr %9) #11
  %75 = load i32, ptr %10, align 4
  switch i32 %75, label %117 [
    i32 0, label %76
  ]

76:                                               ; preds = %74
  br label %77

77:                                               ; preds = %76, %3
  %78 = load i64, ptr %6, align 8, !tbaa !22
  %79 = urem i64 %78, 8
  %80 = trunc i64 %79 to i32
  store i32 %80, ptr %8, align 4, !tbaa !8
  %81 = load i32, ptr %8, align 4, !tbaa !8
  %82 = icmp ne i32 %81, 0
  br i1 %82, label %83, label %110

83:                                               ; preds = %77
  call void @llvm.lifetime.start.p0(i64 8, ptr %11) #11
  %84 = load i64, ptr %5, align 8, !tbaa !22
  %85 = load i64, ptr %6, align 8, !tbaa !22
  %86 = add i64 %84, %85
  %87 = udiv i64 %86, 8
  store i64 %87, ptr %11, align 8, !tbaa !22
  %88 = load i32, ptr %8, align 4, !tbaa !8
  %89 = zext i32 %88 to i64
  %90 = load i64, ptr %6, align 8, !tbaa !22
  %91 = sub i64 %90, %89
  store i64 %91, ptr %6, align 8, !tbaa !22
  br label %92

92:                                               ; preds = %106, %83
  %93 = load i32, ptr %8, align 4, !tbaa !8
  %94 = icmp ne i32 %93, 0
  br i1 %94, label %95, label %109

95:                                               ; preds = %92
  %96 = load i32, ptr %8, align 4, !tbaa !8
  %97 = sub i32 8, %96
  %98 = shl i32 1, %97
  %99 = load ptr, ptr %4, align 8, !tbaa !21
  %100 = load i64, ptr %11, align 8, !tbaa !22
  %101 = getelementptr inbounds nuw i8, ptr %99, i64 %100
  %102 = load i8, ptr %101, align 1, !tbaa !38
  %103 = zext i8 %102 to i32
  %104 = or i32 %103, %98
  %105 = trunc i32 %104 to i8
  store i8 %105, ptr %101, align 1, !tbaa !38
  br label %106

106:                                              ; preds = %95
  %107 = load i32, ptr %8, align 4, !tbaa !8
  %108 = add i32 %107, -1
  store i32 %108, ptr %8, align 4, !tbaa !8
  br label %92, !llvm.loop !188

109:                                              ; preds = %92
  call void @llvm.lifetime.end.p0(i64 8, ptr %11) #11
  br label %110

110:                                              ; preds = %109, %77
  %111 = load ptr, ptr %4, align 8, !tbaa !21
  %112 = load i64, ptr %5, align 8, !tbaa !22
  %113 = udiv i64 %112, 8
  %114 = getelementptr inbounds nuw i8, ptr %111, i64 %113
  %115 = load i64, ptr %6, align 8, !tbaa !22
  %116 = udiv i64 %115, 8
  call void @llvm.memset.p0.i64(ptr align 1 %114, i8 -1, i64 %116, i1 false)
  store i32 0, ptr %10, align 4
  br label %117

117:                                              ; preds = %110, %74
  call void @llvm.lifetime.end.p0(i64 4, ptr %8) #11
  call void @llvm.lifetime.end.p0(i64 4, ptr %7) #11
  %118 = load i32, ptr %10, align 4
  switch i32 %118, label %120 [
    i32 0, label %119
    i32 1, label %119
  ]

119:                                              ; preds = %117, %117
  ret void

120:                                              ; preds = %117
  unreachable
}