; Function Attrs: nofree norecurse nosync nounwind memory(argmem: readwrite) uwtable
define internal fastcc void @ssl_bitmask_set(ptr noundef captures(none) %0, i64 noundef range(i64 0, 16777216) %1, i64 noundef range(i64 0, 16777216) %2) unnamed_addr #15 {
  %4 = trunc nuw nsw i64 %1 to i32
  %5 = and i32 %4, 7
  %6 = sub nuw nsw i32 8, %5
  %.not = icmp eq i32 %5, 0
  br i1 %.not, label %29, label %7

7:                                                ; preds = %3
  %8 = lshr i64 %1, 3
  %9 = zext nneg i32 %6 to i64
  %.not44 = icmp samesign ugt i64 %2, %9
  br i1 %.not44, label %19, label %.preheader

.preheader:                                       ; preds = %7
  %.not4651 = icmp eq i64 %2, 0
  br i1 %.not4651, label %.loopexit50.thread, label %.lr.ph

.lr.ph:                                           ; preds = %.preheader
  %10 = getelementptr inbounds nuw i8, ptr %0, i64 %8
  %.promoted = load i8, ptr %10, align 1, !tbaa !32
  br label %11

11:                                               ; preds = %.lr.ph, %11
  %12 = phi i8 [ %.promoted, %.lr.ph ], [ %17, %11 ]
  %.13652 = phi i64 [ %2, %.lr.ph ], [ %18, %11 ]
  %13 = trunc i64 %.13652 to i32
  %14 = sub i32 %6, %13
  %15 = shl nuw nsw i32 1, %14
  %16 = trunc i32 %15 to i8
  %17 = or i8 %12, %16
  %18 = add nsw i64 %.13652, -1
  %.not46 = icmp eq i64 %18, 0
  br i1 %.not46, label %..loopexit50_crit_edge, label %11, !llvm.loop !173

19:                                               ; preds = %7
  %20 = add nuw nsw i64 %1, %9
  %21 = getelementptr inbounds nuw i8, ptr %0, i64 %8
  %.promoted53 = load i8, ptr %21, align 1, !tbaa !32
  br label %22

22:                                               ; preds = %19, %22
  %.03855 = phi i32 [ %6, %19 ], [ %24, %22 ]
  %23 = phi i8 [ %.promoted53, %19 ], [ %27, %22 ]
  %24 = add nsw i32 %.03855, -1
  %25 = shl nuw nsw i32 1, %24
  %26 = trunc i32 %25 to i8
  %27 = or i8 %23, %26
  %.not45 = icmp eq i32 %24, 0
  br i1 %.not45, label %.loopexit50, label %22, !llvm.loop !174

..loopexit50_crit_edge:                           ; preds = %11
  store i8 %17, ptr %10, align 1, !tbaa !32
  br label %.loopexit50.thread

.loopexit50:                                      ; preds = %22
  %28 = sub nuw nsw i64 %2, %9
  store i8 %27, ptr %21, align 1, !tbaa !32
  br label %29

29:                                               ; preds = %.loopexit50, %3
  %.035 = phi i64 [ %28, %.loopexit50 ], [ %2, %3 ]
  %.0 = phi i64 [ %20, %.loopexit50 ], [ %1, %3 ]
  %30 = trunc nuw nsw i64 %.035 to i32
  %31 = and i32 %30, 7
  %.not47 = icmp eq i32 %31, 0
  br i1 %.not47, label %43, label %32

32:                                               ; preds = %29
  %33 = add nuw nsw i64 %.0, %.035
  %34 = lshr i64 %33, 3
  %35 = getelementptr inbounds nuw i8, ptr %0, i64 %34
  %.promoted56 = load i8, ptr %35, align 1, !tbaa !32
  br label %36

36:                                               ; preds = %32, %36
  %.03758 = phi i32 [ %31, %32 ], [ %42, %36 ]
  %37 = phi i8 [ %.promoted56, %32 ], [ %41, %36 ]
  %38 = sub nuw nsw i32 8, %.03758
  %39 = shl nuw nsw i32 1, %38
  %40 = trunc i32 %39 to i8
  %41 = or i8 %37, %40
  %42 = add nsw i32 %.03758, -1
  %.not48 = icmp eq i32 %42, 0
  br i1 %.not48, label %.loopexit, label %36, !llvm.loop !175

.loopexit:                                        ; preds = %36
  store i8 %41, ptr %35, align 1, !tbaa !32
  br label %43

43:                                               ; preds = %.loopexit, %29
  %44 = lshr i64 %.0, 3
  %45 = getelementptr inbounds nuw i8, ptr %0, i64 %44
  %46 = lshr i64 %.035, 3
  tail call void @llvm.memset.p0.i64(ptr align 1 %45, i8 -1, i64 %46, i1 false)
  br label %.loopexit50.thread

.loopexit50.thread:                               ; preds = %..loopexit50_crit_edge, %.preheader, %43
  ret void
}